; Function Attrs: mustprogress nofree nounwind uwtable
define dso_local noundef nonnull align 8 dereferenceable(32) ptr @_ZN2EA8UnitTest11GetRegistryEv() local_unnamed_addr #24 personality ptr @__gxx_personality_v0 {
entry:
  %0 = load atomic i8, ptr @_ZGVZN2EA8UnitTest11GetRegistryEvE9sRegistry acquire, align 8
  %guard.uninitialized = icmp eq i8 %0, 0
  br i1 %guard.uninitialized, label %init.check, label %init.end, !prof !25

init.check:                                       ; preds = %entry
  %1 = tail call i32 @__cxa_guard_acquire(ptr nonnull @_ZGVZN2EA8UnitTest11GetRegistryEvE9sRegistry) #32
  %tobool.not = icmp eq i32 %1, 0
  br i1 %tobool.not, label %init.end, label %invoke.cont

invoke.cont:                                      ; preds = %init.check
  store ptr getelementptr inbounds ({ [10 x ptr] }, ptr @_ZTVN2EA8UnitTest14TestCollectionE, i64 0, i32 0, i64 2), ptr @_ZZN2EA8UnitTest11GetRegistryEvE9sRegistry, align 8
  tail call void @llvm.memset.p0.i64(ptr noundef nonnull align 8 dereferenceable(24) getelementptr inbounds (%"class.EA::UnitTest::TestCollection", ptr @_ZZN2EA8UnitTest11GetRegistryEvE9sRegistry, i64 0, i32 1, i32 0, i32 0), i8 0, i64 24, i1 false)
  %2 = tail call i32 @__cxa_atexit(ptr nonnull @_ZN2EA8UnitTest14TestCollectionD2Ev, ptr nonnull @_ZZN2EA8UnitTest11GetRegistryEvE9sRegistry, ptr nonnull @__dso_handle) #32
  tail call void @__cxa_guard_release(ptr nonnull @_ZGVZN2EA8UnitTest11GetRegistryEvE9sRegistry) #32
  br label %init.end

init.end:                                         ; preds = %invoke.cont, %init.check, %entry
  ret ptr @_ZZN2EA8UnitTest11GetRegistryEvE9sRegistry
}